; Function Attrs: mustprogress nofree norecurse nosync nounwind willreturn memory(read, inaccessiblemem: none) uwtable
define noundef ptr @_ZNK3g2o18ParameterContainer12getParameterEi(ptr noundef nonnull readonly align 8 captures(address) dereferenceable(57) %0, i32 noundef %1) local_unnamed_addr #8 align 2 {
  %3 = getelementptr inbounds nuw i8, ptr %0, i64 24
  %4 = load ptr, ptr %3, align 8, !tbaa !12
  %5 = getelementptr inbounds nuw i8, ptr %0, i64 16
  %.not10.i.i.i = icmp eq ptr %4, null
  br i1 %.not10.i.i.i, label %_ZNKSt3mapIiPN3g2o9ParameterESt4lessIiESaISt4pairIKiS2_EEE4findERS6_.exit.thread, label %.lr.ph.i.i.i

.lr.ph.i.i.i:                                     ; preds = %2, %.lr.ph.i.i.i
  %.012.i.i.i = phi ptr [ %.1.i.i.i, %.lr.ph.i.i.i ], [ %4, %2 ]
  %.0811.i.i.i = phi ptr [ %.19.i.i.i, %.lr.ph.i.i.i ], [ %5, %2 ]
  %6 = getelementptr inbounds nuw i8, ptr %.012.i.i.i, i64 32
  %7 = load i32, ptr %6, align 4, !tbaa !37
  %8 = icmp slt i32 %7, %1
  %.19.i.i.i = select i1 %8, ptr %.0811.i.i.i, ptr %.012.i.i.i
  %.1.in.v.i.i.i = select i1 %8, i64 24, i64 16
  %.1.in.i.i.i = getelementptr inbounds nuw i8, ptr %.012.i.i.i, i64 %.1.in.v.i.i.i
  %.1.i.i.i = load ptr, ptr %.1.in.i.i.i, align 8, !tbaa !38
  %.not.i.i.i = icmp eq ptr %.1.i.i.i, null
  br i1 %.not.i.i.i, label %_ZNKSt8_Rb_treeIiSt4pairIKiPN3g2o9ParameterEESt10_Select1stIS5_ESt4lessIiESaIS5_EE14_M_lower_boundEPKSt13_Rb_tree_nodeIS5_EPKSt18_Rb_tree_node_baseRS1_.exit.i.i, label %.lr.ph.i.i.i, !llvm.loop !41

_ZNKSt8_Rb_treeIiSt4pairIKiPN3g2o9ParameterEESt10_Select1stIS5_ESt4lessIiESaIS5_EE14_M_lower_boundEPKSt13_Rb_tree_nodeIS5_EPKSt18_Rb_tree_node_baseRS1_.exit.i.i: ; preds = %.lr.ph.i.i.i
  %9 = icmp eq ptr %.19.i.i.i, %5
  br i1 %9, label %_ZNKSt3mapIiPN3g2o9ParameterESt4lessIiESaISt4pairIKiS2_EEE4findERS6_.exit.thread, label %_ZNKSt3mapIiPN3g2o9ParameterESt4lessIiESaISt4pairIKiS2_EEE4findERS6_.exit

_ZNKSt3mapIiPN3g2o9ParameterESt4lessIiESaISt4pairIKiS2_EEE4findERS6_.exit: ; preds = %_ZNKSt8_Rb_treeIiSt4pairIKiPN3g2o9ParameterEESt10_Select1stIS5_ESt4lessIiESaIS5_EE14_M_lower_boundEPKSt13_Rb_tree_nodeIS5_EPKSt18_Rb_tree_node_baseRS1_.exit.i.i
  %10 = getelementptr inbounds nuw i8, ptr %.19.i.i.i, i64 32
  %11 = load i32, ptr %10, align 4, !tbaa !37
  %12 = icmp slt i32 %1, %11
  br i1 %12, label %_ZNKSt3mapIiPN3g2o9ParameterESt4lessIiESaISt4pairIKiS2_EEE4findERS6_.exit.thread, label %13

13:                                               ; preds = %_ZNKSt3mapIiPN3g2o9ParameterESt4lessIiESaISt4pairIKiS2_EEE4findERS6_.exit
  %14 = getelementptr inbounds nuw i8, ptr %.19.i.i.i, i64 40
  %15 = load ptr, ptr %14, align 8, !tbaa !28
  br label %_ZNKSt3mapIiPN3g2o9ParameterESt4lessIiESaISt4pairIKiS2_EEE4findERS6_.exit.thread

_ZNKSt3mapIiPN3g2o9ParameterESt4lessIiESaISt4pairIKiS2_EEE4findERS6_.exit.thread: ; preds = %2, %_ZNKSt8_Rb_treeIiSt4pairIKiPN3g2o9ParameterEESt10_Select1stIS5_ESt4lessIiESaIS5_EE14_M_lower_boundEPKSt13_Rb_tree_nodeIS5_EPKSt18_Rb_tree_node_baseRS1_.exit.i.i, %_ZNKSt3mapIiPN3g2o9ParameterESt4lessIiESaISt4pairIKiS2_EEE4findERS6_.exit, %13
  %.0 = phi ptr [ %15, %13 ], [ null, %_ZNKSt3mapIiPN3g2o9ParameterESt4lessIiESaISt4pairIKiS2_EEE4findERS6_.exit ], [ null, %_ZNKSt8_Rb_treeIiSt4pairIKiPN3g2o9ParameterEESt10_Select1stIS5_ESt4lessIiESaIS5_EE14_M_lower_boundEPKSt13_Rb_tree_nodeIS5_EPKSt18_Rb_tree_node_baseRS1_.exit.i.i ], [ null, %2 ]
  ret ptr %.0
}